target datalayout = "e-m:e-p270:32:32-p271:32:32-p272:64:64-i64:64-i128:128-f80:128-n8:16:32:64-S128"
target triple = "x86_64-pc-linux-gnu"

%struct.st_str_end_key = type { ptr, ptr }
%struct.re_pattern_buffer = type { ptr, ptr, ptr, i32, i32, ptr, ptr, i32, i32, i32, i32, i32, i32, i32, i32, i32, ptr, ptr, i32, ptr, i32, ptr, i32, i32, i32, i32, i32, i32, ptr, ptr, [256 x i8], i32, i32, i32, ptr }
%struct.NameEntry = type { ptr, i32, i32, i32, i32, ptr }

; Function Attrs: nounwind uwtable
define dso_local i32 @onig_st_lookup_strend(ptr noundef %0, ptr noundef %1, ptr noundef %2, ptr noundef %3) #0 {
  %5 = alloca ptr, align 8
  %6 = alloca ptr, align 8
  %7 = alloca ptr, align 8
  %8 = alloca ptr, align 8
  %9 = alloca %struct.st_str_end_key, align 8
  store ptr %0, ptr %5, align 8, !tbaa !9
  store ptr %1, ptr %6, align 8, !tbaa !4
  store ptr %2, ptr %7, align 8, !tbaa !4
  store ptr %3, ptr %8, align 8, !tbaa !20
  call void @llvm.lifetime.start.p0(i64 16, ptr %9) #8
  %10 = load ptr, ptr %6, align 8, !tbaa !4
  %11 = getelementptr inbounds nuw %struct.st_str_end_key, ptr %9, i32 0, i32 0
  store ptr %10, ptr %11, align 8, !tbaa !17
  %12 = load ptr, ptr %7, align 8, !tbaa !4
  %13 = getelementptr inbounds nuw %struct.st_str_end_key, ptr %9, i32 0, i32 1
  store ptr %12, ptr %13, align 8, !tbaa !15
  %14 = load ptr, ptr %5, align 8, !tbaa !9
  %15 = ptrtoint ptr %9 to i64
  %16 = load ptr, ptr %8, align 8, !tbaa !20
  %17 = call i32 @onig_st_lookup(ptr noundef %14, i64 noundef %15, ptr noundef %16)
  call void @llvm.lifetime.end.p0(i64 16, ptr %9) #8
  ret i32 %17
}

; Function Attrs: nounwind uwtable
define internal ptr @name_find(ptr noundef %0, ptr noundef %1, ptr noundef %2) #0 {
  %4 = alloca ptr, align 8
  %5 = alloca ptr, align 8
  %6 = alloca ptr, align 8
  %7 = alloca ptr, align 8
  %8 = alloca ptr, align 8
  store ptr %0, ptr %4, align 8, !tbaa !33
  store ptr %1, ptr %5, align 8, !tbaa !4
  store ptr %2, ptr %6, align 8, !tbaa !4
  call void @llvm.lifetime.start.p0(i64 8, ptr %7) #8
  call void @llvm.lifetime.start.p0(i64 8, ptr %8) #8
  %9 = load ptr, ptr %4, align 8, !tbaa !33
  %10 = getelementptr inbounds nuw %struct.re_pattern_buffer, ptr %9, i32 0, i32 21
  %11 = load ptr, ptr %10, align 8, !tbaa !35
  store ptr %11, ptr %8, align 8, !tbaa !37
  store ptr null, ptr %7, align 8, !tbaa !9
  %12 = load ptr, ptr %8, align 8, !tbaa !37
  %13 = icmp ne ptr %12, null
  br i1 %13, label %14, label %19

14:                                               ; preds = %3
  %15 = load ptr, ptr %8, align 8, !tbaa !37
  %16 = load ptr, ptr %5, align 8, !tbaa !4
  %17 = load ptr, ptr %6, align 8, !tbaa !4
  %18 = call i32 @onig_st_lookup_strend(ptr noundef %15, ptr noundef %16, ptr noundef %17, ptr noundef %7)
  br label %19

19:                                               ; preds = %14, %3
  %20 = load ptr, ptr %7, align 8, !tbaa !9
  call void @llvm.lifetime.end.p0(i64 8, ptr %8) #8
  call void @llvm.lifetime.end.p0(i64 8, ptr %7) #8
  ret ptr %20
}

; Function Attrs: nounwind uwtable
define dso_local i32 @onig_name_to_group_numbers(ptr noundef %0, ptr noundef %1, ptr noundef %2, ptr noundef %3) #0 {
  %5 = alloca i32, align 4
  %6 = alloca ptr, align 8
  %7 = alloca ptr, align 8
  %8 = alloca ptr, align 8
  %9 = alloca ptr, align 8
  %10 = alloca ptr, align 8
  %11 = alloca i32, align 4
  store ptr %0, ptr %6, align 8, !tbaa !33
  store ptr %1, ptr %7, align 8, !tbaa !4
  store ptr %2, ptr %8, align 8, !tbaa !4
  store ptr %3, ptr %9, align 8, !tbaa !60
  call void @llvm.lifetime.start.p0(i64 8, ptr %10) #8
  %12 = load ptr, ptr %6, align 8, !tbaa !33
  %13 = load ptr, ptr %7, align 8, !tbaa !4
  %14 = load ptr, ptr %8, align 8, !tbaa !4
  %15 = call ptr @name_find(ptr noundef %12, ptr noundef %13, ptr noundef %14)
  store ptr %15, ptr %10, align 8, !tbaa !9
  %16 = load ptr, ptr %10, align 8, !tbaa !9
  %17 = icmp eq ptr %16, null
  br i1 %17, label %18, label %19

18:                                               ; preds = %4
  store i32 -217, ptr %5, align 4
  store i32 1, ptr %11, align 4
  br label %36

19:                                               ; preds = %4
  %20 = load ptr, ptr %10, align 8, !tbaa !9
  %21 = getelementptr inbounds nuw %struct.NameEntry, ptr %20, i32 0, i32 2
  %22 = load i32, ptr %21, align 4, !tbaa !50
  switch i32 %22, label %27 [
    i32 0, label %32
    i32 1, label %23
  ]

23:                                               ; preds = %19
  %24 = load ptr, ptr %10, align 8, !tbaa !9
  %25 = getelementptr inbounds nuw %struct.NameEntry, ptr %24, i32 0, i32 4
  %26 = load ptr, ptr %9, align 8, !tbaa !60
  store ptr %25, ptr %26, align 8, !tbaa !62
  br label %32

27:                                               ; preds = %19
  %28 = load ptr, ptr %10, align 8, !tbaa !9
  %29 = getelementptr inbounds nuw %struct.NameEntry, ptr %28, i32 0, i32 5
  %30 = load ptr, ptr %29, align 8, !tbaa !51
  %31 = load ptr, ptr %9, align 8, !tbaa !60
  store ptr %30, ptr %31, align 8, !tbaa !62
  br label %32

32:                                               ; preds = %27, %23, %19
  %33 = load ptr, ptr %10, align 8, !tbaa !9
  %34 = getelementptr inbounds nuw %struct.NameEntry, ptr %33, i32 0, i32 2
  %35 = load i32, ptr %34, align 4, !tbaa !50
  store i32 %35, ptr %5, align 4
  store i32 1, ptr %11, align 4
  br label %36

36:                                               ; preds = %32, %18
  call void @llvm.lifetime.end.p0(i64 8, ptr %10) #8
  %37 = load i32, ptr %5, align 4
  ret i32 %37
}