; Function Attrs: nounwind uwtable
define dso_local noundef i32 @onig_name_to_group_numbers(ptr noundef readonly captures(none) %0, ptr noundef %1, ptr noundef %2, ptr noundef writeonly captures(none) %3) local_unnamed_addr #2 {
  %5 = alloca %struct.st_str_end_key, align 8
  %6 = alloca ptr, align 8
  %7 = getelementptr i8, ptr %0, i64 128
  %.val = load ptr, ptr %7, align 8, !tbaa !27
  call void @llvm.lifetime.start.p0(i64 8, ptr nonnull %6) #25
  store ptr null, ptr %6, align 8, !tbaa !4
  %.not.i = icmp eq ptr %.val, null
  br i1 %.not.i, label %name_find.exit.thread, label %name_find.exit

name_find.exit.thread:                            ; preds = %4
  call void @llvm.lifetime.end.p0(i64 8, ptr nonnull %6) #25
  br label %20

name_find.exit:                                   ; preds = %4
  call void @llvm.lifetime.start.p0(i64 16, ptr nonnull %5) #25
  store ptr %1, ptr %5, align 8, !tbaa !16
  %8 = getelementptr inbounds nuw i8, ptr %5, i64 8
  store ptr %2, ptr %8, align 8, !tbaa !13
  %9 = ptrtoint ptr %5 to i64
  %10 = call i32 @onig_st_lookup(ptr noundef nonnull %.val, i64 noundef %9, ptr noundef nonnull %6) #25
  call void @llvm.lifetime.end.p0(i64 16, ptr nonnull %5) #25
  %.pre.i = load ptr, ptr %6, align 8, !tbaa !4
  call void @llvm.lifetime.end.p0(i64 8, ptr nonnull %6) #25
  %11 = icmp eq ptr %.pre.i, null
  br i1 %11, label %20, label %12

12:                                               ; preds = %name_find.exit
  %13 = getelementptr inbounds nuw i8, ptr %.pre.i, i64 12
  %14 = load i32, ptr %13, align 4, !tbaa !41
  switch i32 %14, label %17 [
    i32 0, label %20
    i32 1, label %15
  ]

15:                                               ; preds = %12
  %16 = getelementptr inbounds nuw i8, ptr %.pre.i, i64 20
  store ptr %16, ptr %3, align 8, !tbaa !51
  br label %20

17:                                               ; preds = %12
  %18 = getelementptr inbounds nuw i8, ptr %.pre.i, i64 24
  %19 = load ptr, ptr %18, align 8, !tbaa !42
  store ptr %19, ptr %3, align 8, !tbaa !51
  br label %20

20:                                               ; preds = %12, %15, %17, %name_find.exit.thread, %name_find.exit
  %.0 = phi i32 [ -217, %name_find.exit ], [ -217, %name_find.exit.thread ], [ %14, %17 ], [ 1, %15 ], [ %14, %12 ]
  ret i32 %.0
}